target datalayout = "e-m:e-p270:32:32-p271:32:32-p272:64:64-i64:64-i128:128-f80:128-n8:16:32:64-S128"
target triple = "x86_64-pc-linux-gnu"

%struct._VAConfigAttrib = type { i32, i32 }
%struct.AVCodecContext = type { ptr, i32, i32, ptr, i32, i32, ptr, ptr, ptr, i64, i32, i32, ptr, i32, %struct.AVRational, %struct.AVRational, %struct.AVRational, i32, i32, i32, i32, i32, %struct.AVRational, i32, i32, i32, i32, i32, i32, i32, i32, i32, i32, i32, ptr, ptr, i32, float, float, float, float, float, float, float, float, float, i32, i32, i32, i32, i32, i32, i32, i32, i32, i32, i32, i32, ptr, ptr, ptr, i32, i32, i32, i32, i32, i32, i32, i32, i32, i32, %struct.AVChannelLayout, i32, i32, i32, i32, i32, i32, i32, i32, ptr, i32, i32, i32, float, float, i32, i32, i32, i32, i32, ptr, i64, i64, float, float, i32, i32, ptr, ptr, i32, i32, i32, i32, i32, ptr, ptr, ptr, ptr, i32, i32, [8 x i64], i32, i32, i32, i32, i32, i32, i32, ptr, ptr, i32, i32, i32, i32, i32, i32, i32, i32, i32, i32, ptr, ptr, i32, i32, ptr, ptr, ptr, ptr, i32, i32, i64, i32, i32, i64, ptr, i64, ptr, i32, ptr, i32 }
%struct.AVRational = type { i32, i32 }
%struct.AVChannelLayout = type { i32, i32, %union.anon, ptr }
%union.anon = type { i64 }
%struct.VAAPIEncodeContext = type { %struct.FFHWBaseEncodeContext, ptr, i32, i32, i32, i32, i32, i32, ptr, ptr, i32, i32, i32, i32, i32, i32, [4 x %struct._VAConfigAttrib], i32, i32, i32, ptr, ptr, [4 x i32], [4 x ptr], [4 x i64], i32, %struct._VAEncMiscParameterRateControl, %struct._VAEncMiscParameterHRD, %struct._VAEncMiscParameterFrameRate, %struct._VAEncMiscParameterBufferMaxFrameSize, %struct._VAEncMiscParameterBufferQualityLevel, ptr, ptr, i32, i32, i32, i32, i32, i32, [20 x i32], [22 x i32], [21 x i32], [23 x i32], i32, i32, ptr, i32, i32 }
%struct.FFHWBaseEncodeContext = type { ptr, ptr, ptr, i32, i32, i32, i32, i32, i32, ptr, ptr, ptr, ptr, ptr, ptr, ptr, ptr, [2 x ptr], i32, i64, i64, i64, i64, i64, i64, i64, [112 x i64], i32, i32, i32, i32, i32, i32, i32, i32, i32, i32, i32, i32, i32, i32, i32, i32, ptr, i32, ptr, i32, ptr }
%struct._VAEncMiscParameterRateControl = type { i32, i32, i32, i32, i32, i32, %union.anon.0, i32, i32, i32, i32, [4 x i32] }
%union.anon.0 = type { %struct.anon }
%struct.anon = type { i32 }
%struct._VAEncMiscParameterHRD = type { i32, i32, [4 x i32] }
%struct._VAEncMiscParameterFrameRate = type { i32, %union.anon.1, [4 x i32] }
%union.anon.1 = type { %struct.anon.2 }
%struct.anon.2 = type { i32 }
%struct._VAEncMiscParameterBufferMaxFrameSize = type { i32, i32, [4 x i32] }
%struct._VAEncMiscParameterBufferQualityLevel = type { i32, [4 x i32] }
%struct.AVVAAPIDeviceContext = type { ptr, i32 }
%union.AVRefStructOpaque = type { ptr }

@.str.163 = private unnamed_addr constant [25 x i8] c"Freed output buffer %#x\0A\00", align 1

; Function Attrs: nounwind uwtable
define internal void @vaapi_encode_free_output_buffer(ptr %0, ptr noundef %1) #0 {
  %3 = alloca %union.AVRefStructOpaque, align 8
  %4 = alloca ptr, align 8
  %5 = alloca ptr, align 8
  %6 = alloca ptr, align 8
  %7 = alloca ptr, align 8
  %8 = alloca i32, align 4
  %9 = getelementptr inbounds nuw %union.AVRefStructOpaque, ptr %3, i32 0, i32 0
  store ptr %0, ptr %9, align 8
  store ptr %1, ptr %4, align 8, !tbaa !108
  call void @llvm.lifetime.start.p0(i64 8, ptr %5) #10
  %10 = load ptr, ptr %3, align 8, !tbaa !158
  store ptr %10, ptr %5, align 8, !tbaa !4
  call void @llvm.lifetime.start.p0(i64 8, ptr %6) #10
  %11 = load ptr, ptr %5, align 8, !tbaa !4
  %12 = getelementptr inbounds nuw %struct.AVCodecContext, ptr %11, i32 0, i32 6
  %13 = load ptr, ptr %12, align 8, !tbaa !11
  store ptr %13, ptr %6, align 8, !tbaa !33
  call void @llvm.lifetime.start.p0(i64 8, ptr %7) #10
  %14 = load ptr, ptr %4, align 8, !tbaa !108
  store ptr %14, ptr %7, align 8, !tbaa !226
  call void @llvm.lifetime.start.p0(i64 4, ptr %8) #10
  %15 = load ptr, ptr %7, align 8, !tbaa !226
  %16 = load i32, ptr %15, align 4, !tbaa !37
  store i32 %16, ptr %8, align 4, !tbaa !37
  %17 = load ptr, ptr %6, align 8, !tbaa !33
  %18 = getelementptr inbounds nuw %struct.VAAPIEncodeContext, ptr %17, i32 0, i32 20
  %19 = load ptr, ptr %18, align 8, !tbaa !62
  %20 = getelementptr inbounds nuw %struct.AVVAAPIDeviceContext, ptr %19, i32 0, i32 0
  %21 = load ptr, ptr %20, align 8, !tbaa !75
  %22 = load i32, ptr %8, align 4, !tbaa !37
  %23 = call i32 @vaDestroyBuffer(ptr noundef %21, i32 noundef %22)
  %24 = load ptr, ptr %5, align 8, !tbaa !4
  %25 = load i32, ptr %8, align 4, !tbaa !37
  call void (ptr, i32, ptr, ...) @av_log(ptr noundef %24, i32 noundef 48, ptr noundef @.str.163, i32 noundef %25)
  call void @llvm.lifetime.end.p0(i64 4, ptr %8) #10
  call void @llvm.lifetime.end.p0(i64 8, ptr %7) #10
  call void @llvm.lifetime.end.p0(i64 8, ptr %6) #10
  call void @llvm.lifetime.end.p0(i64 8, ptr %5) #10
  ret void
}