; Function Attrs: nounwind uwtable
define internal void @vaapi_encode_free_output_buffer(ptr %0, ptr noundef readonly captures(none) %1) #0 {
  %3 = getelementptr inbounds nuw i8, ptr %0, i64 32
  %4 = load ptr, ptr %3, align 8, !tbaa !4
  %5 = load i32, ptr %1, align 4, !tbaa !109
  %6 = getelementptr inbounds nuw i8, ptr %4, i64 1312
  %7 = load ptr, ptr %6, align 8, !tbaa !52
  %8 = load ptr, ptr %7, align 8, !tbaa !65
  %9 = tail call i32 @vaDestroyBuffer(ptr noundef %8, i32 noundef %5) #9
  tail call void (ptr, i32, ptr, ...) @av_log(ptr noundef %0, i32 noundef 48, ptr noundef nonnull @.str.163, i32 noundef %5) #9
  ret void
}